; Function Attrs: mustprogress nofree norecurse nosync nounwind willreturn memory(argmem: read) uwtable
define dso_local ptr @LLVMIsAConstantDataVector(ptr noundef readonly %0) local_unnamed_addr #11 {
  %.not.i.i = icmp eq ptr %0, null
  br i1 %.not.i.i, label %_ZN4llvm16dyn_cast_or_nullINS_18ConstantDataVectorENS_5ValueEEEDaPT0_.exit, label %2

2:                                                ; preds = %1
  %3 = load i8, ptr %0, align 8
  %4 = icmp eq i8 %3, 16
  %spec.select.i.i.i = select i1 %4, ptr %0, ptr null
  br label %_ZN4llvm16dyn_cast_or_nullINS_18ConstantDataVectorENS_5ValueEEEDaPT0_.exit

_ZN4llvm16dyn_cast_or_nullINS_18ConstantDataVectorENS_5ValueEEEDaPT0_.exit: ; preds = %1, %2
  %.0.i.i = phi ptr [ %spec.select.i.i.i, %2 ], [ null, %1 ]
  ret ptr %.0.i.i
}